; ModuleID = '40/876.c'
source_filename = "40/876.c"
target datalayout = "e-m:e-p270:32:32-p271:32:32-p272:64:64-i64:64-f80:128-n8:16:32:64-S128"
target triple = "x86_64-pc-linux-gnu"

@.str = private unnamed_addr constant [16 x i8] c"%lf%lf%lf%lf%lf\00", align 1
@.str.1 = private unnamed_addr constant [6 x i8] c"%.4lf\00", align 1
@.str.2 = private unnamed_addr constant [14 x i8] c"Invalid input\00", align 1

; Function Attrs: noinline nounwind uwtable
define dso_local i32 @main(i32 %0, i8** %1) #0 {
  %3 = alloca i32, align 4
  %4 = alloca i32, align 4
  %5 = alloca i8**, align 8
  %6 = alloca double, align 8
  %7 = alloca double, align 8
  %8 = alloca double, align 8
  %9 = alloca double, align 8
  %10 = alloca double, align 8
  %11 = alloca double, align 8
  %12 = alloca double, align 8
  store i32 0, i32* %3, align 4
  store i32 %0, i32* %4, align 4
  store i8** %1, i8*** %5, align 8
  %13 = call i32 (i8*, ...) @__isoc99_scanf(i8* getelementptr inbounds ([16 x i8], [16 x i8]* @.str, i64 0, i64 0), double* %6, double* %7, double* %8, double* %9, double* %10)
  %14 = load double, double* %6, align 8
  %15 = load double, double* %7, align 8
  %16 = fadd double %14, %15
  %17 = load double, double* %8, align 8
  %18 = fadd double %16, %17
  %19 = load double, double* %9, align 8
  %20 = fadd double %18, %19
  %21 = fdiv double %20, 2.000000e+00
  store double %21, double* %11, align 8
  %22 = load double, double* %11, align 8
  %23 = load double, double* %6, align 8
  %24 = fsub double %22, %23
  %25 = load double, double* %11, align 8
  %26 = load double, double* %7, align 8
  %27 = fsub double %25, %26
  %28 = fmul double %24, %27
  %29 = load double, double* %11, align 8
  %30 = load double, double* %8, align 8
  %31 = fsub double %29, %30
  %32 = fmul double %28, %31
  %33 = load double, double* %11, align 8
  %34 = load double, double* %9, align 8
  %35 = fsub double %33, %34
  %36 = fmul double %32, %35
  %37 = load double, double* %6, align 8
  %38 = load double, double* %7, align 8
  %39 = fmul double %37, %38
  %40 = load double, double* %8, align 8
  %41 = fmul double %39, %40
  %42 = load double, double* %9, align 8
  %43 = fmul double %41, %42
  %44 = load double, double* %10, align 8
  %45 = fmul double %44, 0x400921FB4D12D84A
  %46 = fdiv double %45, 3.600000e+02
  %47 = call double @cos(double %46) #3
  %48 = fmul double %43, %47
  %49 = load double, double* %10, align 8
  %50 = fmul double %49, 0x400921FB4D12D84A
  %51 = fdiv double %50, 3.600000e+02
  %52 = call double @cos(double %51) #3
  %53 = fmul double %48, %52
  %54 = fsub double %36, %53
  store double %54, double* %12, align 8
  %55 = load double, double* %12, align 8
  %56 = fcmp ogt double %55, 0.000000e+00
  br i1 %56, label %57, label %61

57:                                               ; preds = %2
  %58 = load double, double* %12, align 8
  %59 = call double @sqrt(double %58) #3
  %60 = call i32 (i8*, ...) @printf(i8* getelementptr inbounds ([6 x i8], [6 x i8]* @.str.1, i64 0, i64 0), double %59)
  br label %63

61:                                               ; preds = %2
  %62 = call i32 (i8*, ...) @printf(i8* getelementptr inbounds ([14 x i8], [14 x i8]* @.str.2, i64 0, i64 0))
  br label %63

63:                                               ; preds = %61, %57
  %64 = load i32, i32* %3, align 4
  ret i32 %64
}

declare dso_local i32 @__isoc99_scanf(i8*, ...) #1

; Function Attrs: nounwind
declare dso_local double @cos(double) #2

declare dso_local i32 @printf(i8*, ...) #1

; Function Attrs: nounwind
declare dso_local double @sqrt(double) #2


!llvm.module.flags = !{!0}
!llvm.ident = !{!1}

!0 = !{i32 1, !"wchar_size", i32 4}
!1 = !{!"clang version 10.0.0-4ubuntu1 "}
